Certificate:
    Data:
        Version: 3 (0x2)
        Serial Number: 2 (0x2)
    Signature Algorithm: sha256WithRSAEncryption
        Issuer: CN=Easy-RSA CA
        Validity
            Not Before: Aug 12 20:37:30 2017 GMT
            Not After : Aug 10 20:37:30 2027 GMT
        Subject: CN=client1
        Subject Public Key Info:
            Public Key Algorithm: rsaEncryption
                Public-Key: (2048 bit)
                Modulus:
                    00:cb:00:60:8b:c1:d6:9c:c6:fd:12:52:aa:7b:50:
                    43:5c:ce:a4:76:77:88:83:ca:a7:4d:20:89:a5:9f:
                    fe:97:60:d4:26:91:b1:7e:89:57:f7:e0:c7:59:59:
                    f3:31:18:a2:59:8a:36:e0:62:05:8f:5b:4e:2a:29:
                    60:a8:a0:f2:88:27:dc:bb:76:ef:d6:b3:9b:5f:4e:
                    bf:81:07:81:8b:f1:8f:6a:cf:e9:25:35:1d:11:ea:
                    3b:a5:f0:53:85:25:27:0d:ab:94:13:d1:f2:50:26:
                    07:85:64:fc:6a:dc:e6:51:5e:0c:7a:40:89:ca:1a:
                    57:8b:c4:6e:fc:8b:1d:da:5c:fe:18:68:17:80:23:
                    ae:3d:17:01:f1:66:f4:8c:01:13:d9:1e:43:7f:57:
                    c5:1d:a8:69:41:91:23:19:bf:d5:34:b1:3e:a0:51:
                    c3:16:8f:c3:b1:dc:a1:13:a1:d6:5e:47:46:99:e7:
                    97:2c:ac:be:fc:ab:28:62:b4:0b:b0:2c:f8:57:99:
                    a5:fe:3e:01:4e:ce:25:57:00:df:8d:d4:46:bc:4b:
                    fa:2c:dd:a3:04:b7:f8:3a:cc:26:b4:8e:87:e2:5f:
                    ec:4e:af:0d:b3:89:ab:1a:07:36:b9:be:4e:db:74:
                    b1:a6:35:63:e2:fa:87:3d:c5:7f:60:50:9e:25:58:
                    1c:cd
                Exponent: 65537 (0x10001)
        X509v3 extensions:
            X509v3 Basic Constraints: 
                CA:FALSE
            X509v3 Subject Key Identifier: 
                CF:B9:7F:E9:DD:37:C1:50:2D:E3:DF:59:ED:A4:D5:4D:5F:29:6E:08
            X509v3 Authority Key Identifier: 
                keyid:1D:89:72:E0:8C:29:5C:EC:6A:73:9C:72:82:F0:5F:3A:0F:BF:47:C5
                DirName:/CN=Easy-RSA CA
                serial:B9:64:F1:C8:D1:11:65:16

            X509v3 Extended Key Usage: 
                TLS Web Client Authentication
            X509v3 Key Usage: 
                Digital Signature
    Signature Algorithm: sha256WithRSAEncryption
         cd:27:7e:67:44:d2:a2:cf:be:78:fa:c2:f4:15:3a:de:1c:31:
         e3:f5:94:a5:68:e7:06:23:69:4e:76:9b:91:3c:26:2f:82:08:
         3f:91:e7:b3:02:c2:ef:3b:1b:48:af:14:7f:83:6f:85:cb:06:
         73:9d:62:73:56:ea:4b:b1:bb:56:34:6c:14:a1:a0:8a:68:48:
         32:a7:8c:85:6d:f1:81:86:cc:df:8f:80:45:53:c9:51:87:3e:
         a4:7d:9a:a3:7e:10:5d:fc:ed:bc:3b:c2:5f:f5:2c:a9:e0:8b:
         b6:36:2c:20:2c:f6:e6:49:c5:c0:0d:04:27:8a:55:18:a2:10:
         d4:2e:1b:da:f4:db:e8:29:ce:19:e7:d6:0f:80:fd:57:4a:00:
         92:bb:43:3c:b0:26:0f:24:4a:0d:8e:3b:3a:54:83:e2:5b:5d:
         3c:30:3c:ac:e2:e4:02:46:8c:0e:cb:8b:44:8b:f2:75:53:74:
         6e:fb:f6:c1:17:bd:63:0d:82:a0:06:63:14:df:4f:62:70:14:
         9f:9f:51:56:2f:36:0b:22:b8:2a:13:45:e7:57:53:91:48:fa:
         b3:a7:3a:36:d9:d7:34:23:d1:ca:c9:89:5a:99:f9:fe:c4:df:
         0c:01:e0:b8:1f:86:03:a1:54:ff:f0:4c:8b:8c:82:10:d2:19:
         a0:2d:42:45
-----BEGIN CERTIFICATE-----
MIIDOzCCAiOgAwIBAgIBAjANBgkqhkiG9w0BAQsFADAWMRQwEgYDVQQDDAtFYXN5
LVJTQSBDQTAeFw0xNzA4MTIyMDM3MzBaFw0yNzA4MTAyMDM3MzBaMBIxEDAOBgNV
BAMMB2NsaWVudDEwggEiMA0GCSqGSIb3DQEBAQUAA4IBDwAwggEKAoIBAQDLAGCL
wdacxv0SUqp7UENczqR2d4iDyqdNIImln/6XYNQmkbF+iVf34MdZWfMxGKJZijbg
YgWPW04qKWCooPKIJ9y7du/Ws5tfTr+BB4GL8Y9qz+klNR0R6jul8FOFJScNq5QT
0fJQJgeFZPxq3OZRXgx6QInKGleLxG78ix3aXP4YaBeAI649FwHxZvSMARPZHkN/
V8UdqGlBkSMZv9U0sT6gUcMWj8Ox3KETodZeR0aZ55csrL78qyhitAuwLPhXmaX+
PgFOziVXAN+N1Ea8S/os3aMEt/g6zCa0jofiX+xOrw2ziasaBza5vk7bdLGmNWPi
+oc9xX9gUJ4lWBzNAgMBAAGjgZcwgZQwCQYDVR0TBAIwADAdBgNVHQ4EFgQUz7l/
6d03wVAt499Z7aTVTV8pbggwRgYDVR0jBD8wPYAUHYly4IwpXOxqc5xygvBfOg+/
R8WhGqQYMBYxFDASBgNVBAMMC0Vhc3ktUlNBIENBggkAuWTxyNERZRYwEwYDVR0l
BAwwCgYIKwYBBQUHAwIwCwYDVR0PBAQDAgeAMA0GCSqGSIb3DQEBCwUAA4IBAQDN
J35nRNKiz754+sL0FTreHDHj9ZSlaOcGI2lOdpuRPCYvggg/keezAsLvOxtIrxR/
g2+FywZznWJzVupLsbtWNGwUoaCKaEgyp4yFbfGBhszfj4BFU8lRhz6kfZqjfhBd
/O28O8Jf9Syp4Iu2NiwgLPbmScXADQQnilUYohDULhva9NvoKc4Z59YPgP1XSgCS
u0M8sCYPJEoNjjs6VIPiW108MDys4uQCRowOy4tEi/J1U3Ru+/bBF71jDYKgBmMU
309icBSfn1FWLzYLIrgqE0XnV1ORSPqzpzo22dc0I9HKyYlamfn+xN8MAeC4H4YD
oVT/8EyLjIIQ0hmgLUJF
-----END CERTIFICATE-----
