Certificate:
    Data:
        Version: 3 (0x2)
        Serial Number: 1 (0x1)
    Signature Algorithm: sha256WithRSAEncryption
        Issuer: CN=Easy-RSA CA
        Validity
            Not Before: Aug 12 20:21:06 2017 GMT
            Not After : Aug 10 20:21:06 2027 GMT
        Subject: CN=devops-tk
        Subject Public Key Info:
            Public Key Algorithm: rsaEncryption
                Public-Key: (2048 bit)
                Modulus:
                    00:bb:8c:ef:0a:57:23:e9:a1:7a:56:61:d3:e8:8c:
                    98:e6:5e:63:75:f2:3a:c9:50:a0:d5:8e:c9:ce:2f:
                    75:85:af:53:f0:e7:2e:1a:74:4d:70:76:d3:f9:54:
                    ea:05:86:22:a9:9a:48:7c:42:6d:49:19:15:38:ce:
                    e7:10:cc:94:86:36:f6:89:b7:7c:e5:7c:f7:d4:40:
                    06:2f:aa:4c:58:0f:8d:ec:5e:e1:af:0b:ae:34:80:
                    77:ba:bf:8e:6b:47:14:e7:2c:c5:7e:33:09:1e:c4:
                    a5:eb:b6:43:29:93:0c:bd:3a:dd:13:d7:7c:83:26:
                    1c:fb:da:87:51:2f:92:c1:06:b5:04:73:00:3f:f2:
                    07:fe:be:9a:50:95:80:82:7b:5f:a4:45:e9:7f:d1:
                    04:a3:d5:e7:cd:eb:d8:e0:88:07:d1:72:b0:94:1f:
                    61:fb:90:b1:e0:80:de:7f:64:9e:57:8b:1e:4c:21:
                    80:51:39:e9:fe:a9:73:3d:16:30:30:9b:7d:64:55:
                    4e:57:39:e8:f1:dd:67:ff:6f:17:3b:3b:fb:ef:bf:
                    6e:20:9b:23:73:49:9c:6a:c3:56:bc:6c:5a:92:a0:
                    eb:11:fb:00:95:3f:64:38:fd:18:2a:0a:87:9a:e0:
                    7d:8e:89:ea:f8:c6:0e:fb:6c:96:bf:f6:9f:e8:83:
                    87:b9
                Exponent: 65537 (0x10001)
        X509v3 extensions:
            X509v3 Basic Constraints: 
                CA:FALSE
            X509v3 Subject Key Identifier: 
                4E:2B:FE:28:02:45:25:09:6C:4B:F5:37:3E:F8:A8:10:51:03:30:FC
            X509v3 Authority Key Identifier: 
                keyid:1D:89:72:E0:8C:29:5C:EC:6A:73:9C:72:82:F0:5F:3A:0F:BF:47:C5
                DirName:/CN=Easy-RSA CA
                serial:B9:64:F1:C8:D1:11:65:16

            X509v3 Extended Key Usage: 
                TLS Web Server Authentication
            X509v3 Key Usage: 
                Digital Signature, Key Encipherment
    Signature Algorithm: sha256WithRSAEncryption
         d8:09:77:02:6f:dc:d2:73:37:5e:40:fb:7d:6c:1a:a2:f1:84:
         ab:d0:28:5e:95:f5:c3:9c:24:ef:8b:61:c4:c5:ee:45:f4:74:
         df:50:4a:06:4a:24:cb:9b:ff:e8:fb:a9:2d:cb:ef:a9:7a:9f:
         a8:85:65:32:9e:06:e8:26:7b:70:fe:98:13:62:ad:22:68:99:
         e6:66:30:9a:3f:34:fa:bb:39:94:44:51:a5:53:7b:16:0a:3b:
         b9:45:9d:24:69:66:65:19:6d:33:e2:f4:f1:49:26:73:8e:97:
         c7:d7:b3:71:fb:cc:f6:10:d3:f2:1b:d0:2f:64:d7:3f:6f:9b:
         8c:84:f1:d7:61:4b:d3:b2:f4:9b:52:7c:fb:81:56:19:0d:b2:
         fe:5c:52:fe:43:93:21:61:77:83:21:13:72:6b:17:5d:ac:6c:
         63:8a:41:64:84:59:89:37:66:e6:63:fc:37:6e:9d:5b:e9:0e:
         4b:75:d7:a8:a3:21:da:8a:0e:be:fc:3e:95:54:20:05:0f:2c:
         3b:71:d8:03:d0:55:c0:b0:bc:2f:c9:fd:5a:b5:6c:61:dd:8c:
         2b:81:7e:75:51:2b:f5:70:c8:de:36:c3:cb:6f:94:1d:ce:0d:
         dd:4e:12:65:14:1d:d5:a8:82:67:4b:60:c4:7c:f9:33:ae:0d:
         42:e0:8a:4d
-----BEGIN CERTIFICATE-----
MIIDPTCCAiWgAwIBAgIBATANBgkqhkiG9w0BAQsFADAWMRQwEgYDVQQDDAtFYXN5
LVJTQSBDQTAeFw0xNzA4MTIyMDIxMDZaFw0yNzA4MTAyMDIxMDZaMBQxEjAQBgNV
BAMMCWRldm9wcy10azCCASIwDQYJKoZIhvcNAQEBBQADggEPADCCAQoCggEBALuM
7wpXI+mhelZh0+iMmOZeY3XyOslQoNWOyc4vdYWvU/DnLhp0TXB20/lU6gWGIqma
SHxCbUkZFTjO5xDMlIY29om3fOV899RABi+qTFgPjexe4a8LrjSAd7q/jmtHFOcs
xX4zCR7Epeu2QymTDL063RPXfIMmHPvah1EvksEGtQRzAD/yB/6+mlCVgIJ7X6RF
6X/RBKPV583r2OCIB9FysJQfYfuQseCA3n9knleLHkwhgFE56f6pcz0WMDCbfWRV
Tlc56PHdZ/9vFzs7+++/biCbI3NJnGrDVrxsWpKg6xH7AJU/ZDj9GCoKh5rgfY6J
6vjGDvtslr/2n+iDh7kCAwEAAaOBlzCBlDAJBgNVHRMEAjAAMB0GA1UdDgQWBBRO
K/4oAkUlCWxL9Tc++KgQUQMw/DBGBgNVHSMEPzA9gBQdiXLgjClc7GpznHKC8F86
D79HxaEapBgwFjEUMBIGA1UEAwwLRWFzeS1SU0EgQ0GCCQC5ZPHI0RFlFjATBgNV
HSUEDDAKBggrBgEFBQcDATALBgNVHQ8EBAMCBaAwDQYJKoZIhvcNAQELBQADggEB
ANgJdwJv3NJzN15A+31sGqLxhKvQKF6V9cOcJO+LYcTF7kX0dN9QSgZKJMub/+j7
qS3L76l6n6iFZTKeBugme3D+mBNirSJomeZmMJo/NPq7OZREUaVTexYKO7lFnSRp
ZmUZbTPi9PFJJnOOl8fXs3H7zPYQ0/Ib0C9k1z9vm4yE8ddhS9Oy9JtSfPuBVhkN
sv5cUv5DkyFhd4MhE3JrF12sbGOKQWSEWYk3ZuZj/DdunVvpDkt116ijIdqKDr78
PpVUIAUPLDtx2APQVcCwvC/J/Vq1bGHdjCuBfnVRK/VwyN42w8tvlB3ODd1OEmUU
HdWogmdLYMR8+TOuDULgik0=
-----END CERTIFICATE-----
